; Function Attrs: mustprogress uwtable
define void @_ZN13sentencepiece20SentencePieceTrainer5TrainERKNS_11TrainerSpecERKNS_14NormalizerSpecEPNS_16SentenceIteratorEPNSt7__cxx1112basic_stringIcSt11char_traitsIcESaIcEEE(ptr dead_on_unwind noalias writable sret(%"class.sentencepiece::util::Status") align 8 %0, ptr noundef nonnull align 8 dereferenceable(336) %1, ptr noundef nonnull align 8 dereferenceable(80) %2, ptr noundef %3, ptr noundef %4) local_unnamed_addr #3 align 2 personality ptr @__gxx_personality_v0 {
  %6 = alloca %"class.sentencepiece::NormalizerSpec", align 8
  call void @llvm.lifetime.start.p0(i64 80, ptr nonnull %6) #26
  call void @_ZN13sentencepiece14NormalizerSpecC2EPN6google8protobuf5ArenaE(ptr noundef nonnull align 8 dereferenceable(80) %6, ptr noundef null)
  invoke void @_ZN13sentencepiece20SentencePieceTrainer5TrainERKNS_11TrainerSpecERKNS_14NormalizerSpecES6_PNS_16SentenceIteratorEPNSt7__cxx1112basic_stringIcSt11char_traitsIcESaIcEEE(ptr dead_on_unwind writable sret(%"class.sentencepiece::util::Status") align 8 %0, ptr noundef nonnull align 8 dereferenceable(336) %1, ptr noundef nonnull align 8 dereferenceable(80) %2, ptr noundef nonnull align 8 dereferenceable(80) %6, ptr noundef %3, ptr noundef %4)
          to label %7 unwind label %8

7:                                                ; preds = %5
  call void @_ZN13sentencepiece14NormalizerSpecD1Ev(ptr noundef nonnull align 8 dereferenceable(80) %6) #26
  call void @llvm.lifetime.end.p0(i64 80, ptr nonnull %6) #26
  ret void

8:                                                ; preds = %5
  %9 = landingpad { ptr, i32 }
          cleanup
  call void @_ZN13sentencepiece14NormalizerSpecD1Ev(ptr noundef nonnull align 8 dereferenceable(80) %6) #26
  call void @llvm.lifetime.end.p0(i64 80, ptr nonnull %6) #26
  resume { ptr, i32 } %9
}